target datalayout = "e-m:e-p270:32:32-p271:32:32-p272:64:64-i64:64-i128:128-f80:128-n8:16:32:64-S128"
target triple = "x86_64-pc-linux-gnu"

%struct.Curl_easy = type { i32, i64, i64, ptr, %struct.Curl_llist_node, %struct.Curl_llist_node, i32, i32, %struct.Curl_message, %struct.easy_pollset, %struct.Names, ptr, ptr, ptr, %struct.SingleRequest, %struct.UserDefined, ptr, ptr, %struct.Progress, %struct.UrlState, ptr, %struct.PureInfo, %struct.curl_tlssessioninfo }
%struct.Curl_llist_node = type { ptr, ptr, ptr, ptr }
%struct.Curl_message = type { %struct.Curl_llist_node, %struct.CURLMsg }
%struct.CURLMsg = type { i32, ptr, %union.anon }
%union.anon = type { ptr }
%struct.easy_pollset = type { [5 x i32], i32, [5 x i8] }
%struct.Names = type { ptr, i32 }
%struct.SingleRequest = type <{ i64, i64, i64, i64, %struct.curltime, i32, i32, i32, i32, i64, i32, i32, i32, i32, ptr, ptr, %struct.bufq, i64, i64, ptr, ptr, %union.anon.0, ptr, i8, i32, [3 x i8] }>
%struct.curltime = type { i64, i32 }
%struct.bufq = type { ptr, ptr, ptr, ptr, i64, i64, i64, i32 }
%union.anon.0 = type { ptr }
%struct.UserDefined = type <{ ptr, ptr, ptr, ptr, ptr, ptr, i16, [6 x i8], i64, i64, i64, ptr, ptr, i64, i16, i16, [4 x i8], ptr, ptr, ptr, ptr, ptr, ptr, ptr, ptr, ptr, ptr, ptr, ptr, ptr, ptr, ptr, ptr, ptr, ptr, ptr, ptr, ptr, ptr, ptr, i32, i32, i32, i32, i32, [4 x i8], i64, i64, i64, i64, i64, i64, i64, i64, ptr, ptr, %struct.curl_mimepart, ptr, ptr, i64, i8, i8, i8, [5 x i8], %struct.ssl_config_data, %struct.ssl_config_data, ptr, i16, i8, i8, [4 x i8], %struct.ssl_general_config, i32, i32, i32, [4 x i8], ptr, ptr, i8, [7 x i8], i64, i8, i8, i8, i8, i32, ptr, ptr, ptr, i8, i8, [2 x i8], i32, [63 x ptr], [8 x ptr], i32, i32, i32, [4 x i8], ptr, ptr, ptr, ptr, ptr, i8, [3 x i8], i32, i32, i32, i64, %struct.Curl_data_priority, ptr, ptr, i64, ptr, i64, ptr, ptr, ptr, i8, [3 x i8], i32, i8, i8, i64, [6 x i8] }>
%struct.curl_mimepart = type { ptr, ptr, i32, i32, ptr, ptr, ptr, ptr, ptr, ptr, ptr, ptr, ptr, ptr, ptr, i64, %struct.mime_state, ptr, %struct.mime_encoder_state, i64 }
%struct.mime_state = type { i32, ptr, i64 }
%struct.mime_encoder_state = type { i64, i64, i64, [256 x i8] }
%struct.ssl_config_data = type { %struct.ssl_primary_config, i64, ptr, ptr, ptr, ptr, ptr, ptr, ptr, i16 }
%struct.ssl_primary_config = type { ptr, ptr, ptr, ptr, ptr, ptr, ptr, ptr, ptr, ptr, ptr, ptr, i8, i32, i8, i8 }
%struct.ssl_general_config = type { i64, i32 }
%struct.Curl_data_priority = type { ptr, ptr, i32, i8 }
%struct.Progress = type { i64, %struct.pgrs_dir, %struct.pgrs_dir, i64, i64, i32, i32, i64, i64, i64, i64, i64, i64, i64, i64, i64, %struct.curltime, %struct.curltime, %struct.curltime, %struct.curltime, [6 x i64], [6 x %struct.curltime], i32, i8 }
%struct.pgrs_dir = type { i64, i64, i64, %struct.pgrs_measure }
%struct.pgrs_measure = type { %struct.curltime, i64 }
%struct.UrlState = type { %struct.curltime, i64, i64, %struct.dynbuf, ptr, i64, ptr, i32, i32, i32, ptr, i64, i32, i64, i32, ptr, %struct.digestdata, %struct.digestdata, %struct.auth, %struct.auth, %struct.Curl_async, ptr, %struct.curltime, %struct.Curl_tree, %struct.Curl_llist, [15 x %struct.time_node], ptr, ptr, i64, i64, %struct.Curl_data_priority, ptr, ptr, ptr, %struct.urlpieces, ptr, ptr, ptr, ptr, ptr, i64, %struct.dynbuf, %struct.Curl_llist, [2 x %struct.curl_header], ptr, i32, ptr, ptr, %struct.store_netrc, %struct.dynamically_allocated_data, i8, i8, i8, i8, i32 }
%struct.digestdata = type { ptr, ptr, ptr, ptr, ptr, ptr, i32, i8, i8 }
%struct.auth = type { i64, i64, i64, i8 }
%struct.Curl_async = type { ptr, ptr, ptr, ptr, i32, i32, i8 }
%struct.Curl_tree = type { ptr, ptr, ptr, ptr, %struct.curltime, ptr }
%struct.time_node = type { %struct.Curl_llist_node, %struct.curltime, i32 }
%struct.urlpieces = type { ptr, ptr, ptr, ptr, ptr, ptr, ptr, ptr }
%struct.dynbuf = type { ptr, i64, i64, i64 }
%struct.Curl_llist = type { ptr, ptr, ptr, i64 }
%struct.curl_header = type { ptr, ptr, i64, i64, i32, ptr }
%struct.store_netrc = type { %struct.dynbuf, ptr, i8 }
%struct.dynamically_allocated_data = type { ptr, ptr, ptr, ptr, ptr, ptr, ptr, ptr, ptr, ptr, ptr, ptr, ptr }
%struct.PureInfo = type { i32, i32, i32, i64, i64, i64, i64, i64, ptr, ptr, i64, i32, %struct.ip_quadruple, i32, ptr, i32, %struct.curl_certinfo, i32, i8 }
%struct.ip_quadruple = type { [46 x i8], [46 x i8], i32, i32 }
%struct.curl_certinfo = type { i32, ptr }
%struct.curl_tlssessioninfo = type { i32, ptr }
%struct.Curl_header_store = type { %struct.Curl_llist_node, ptr, ptr, i32, i8, [1 x i8] }

; Function Attrs: nounwind uwtable
define internal void @copy_header_external(ptr noundef %0, i64 noundef %1, i64 noundef %2, ptr noundef %3, ptr noundef %4) #0 {
  %6 = alloca ptr, align 8
  %7 = alloca i64, align 8
  %8 = alloca i64, align 8
  %9 = alloca ptr, align 8
  %10 = alloca ptr, align 8
  %11 = alloca ptr, align 8
  store ptr %0, ptr %6, align 8, !tbaa !20
  store i64 %1, ptr %7, align 8, !tbaa !10
  store i64 %2, ptr %8, align 8, !tbaa !10
  store ptr %3, ptr %9, align 8, !tbaa !16
  store ptr %4, ptr %10, align 8, !tbaa !93
  call void @llvm.lifetime.start.p0(i64 8, ptr %11) #5
  %12 = load ptr, ptr %10, align 8, !tbaa !93
  store ptr %12, ptr %11, align 8, !tbaa !93
  %13 = load ptr, ptr %6, align 8, !tbaa !20
  %14 = getelementptr inbounds nuw %struct.Curl_header_store, ptr %13, i32 0, i32 1
  %15 = load ptr, ptr %14, align 8, !tbaa !86
  %16 = load ptr, ptr %11, align 8, !tbaa !93
  %17 = getelementptr inbounds nuw %struct.curl_header, ptr %16, i32 0, i32 0
  store ptr %15, ptr %17, align 8, !tbaa !95
  %18 = load ptr, ptr %6, align 8, !tbaa !20
  %19 = getelementptr inbounds nuw %struct.Curl_header_store, ptr %18, i32 0, i32 2
  %20 = load ptr, ptr %19, align 8, !tbaa !97
  %21 = load ptr, ptr %11, align 8, !tbaa !93
  %22 = getelementptr inbounds nuw %struct.curl_header, ptr %21, i32 0, i32 1
  store ptr %20, ptr %22, align 8, !tbaa !98
  %23 = load i64, ptr %8, align 8, !tbaa !10
  %24 = load ptr, ptr %11, align 8, !tbaa !93
  %25 = getelementptr inbounds nuw %struct.curl_header, ptr %24, i32 0, i32 2
  store i64 %23, ptr %25, align 8, !tbaa !99
  %26 = load i64, ptr %7, align 8, !tbaa !10
  %27 = load ptr, ptr %11, align 8, !tbaa !93
  %28 = getelementptr inbounds nuw %struct.curl_header, ptr %27, i32 0, i32 3
  store i64 %26, ptr %28, align 8, !tbaa !100
  %29 = load ptr, ptr %6, align 8, !tbaa !20
  %30 = getelementptr inbounds nuw %struct.Curl_header_store, ptr %29, i32 0, i32 4
  %31 = load i8, ptr %30, align 4, !tbaa !88
  %32 = zext i8 %31 to i32
  %33 = or i32 %32, 134217728
  %34 = load ptr, ptr %11, align 8, !tbaa !93
  %35 = getelementptr inbounds nuw %struct.curl_header, ptr %34, i32 0, i32 4
  store i32 %33, ptr %35, align 8, !tbaa !101
  %36 = load ptr, ptr %9, align 8, !tbaa !16
  %37 = load ptr, ptr %11, align 8, !tbaa !93
  %38 = getelementptr inbounds nuw %struct.curl_header, ptr %37, i32 0, i32 5
  store ptr %36, ptr %38, align 8, !tbaa !102
  call void @llvm.lifetime.end.p0(i64 8, ptr %11) #5
  ret void
}

; Function Attrs: nounwind uwtable
define dso_local i32 @curl_easy_header(ptr noundef %0, ptr noundef %1, i64 noundef %2, i32 noundef %3, i32 noundef %4, ptr noundef %5) #0 {
  %7 = alloca i32, align 4
  %8 = alloca ptr, align 8
  %9 = alloca ptr, align 8
  %10 = alloca i64, align 8
  %11 = alloca i32, align 4
  %12 = alloca i32, align 4
  %13 = alloca ptr, align 8
  %14 = alloca ptr, align 8
  %15 = alloca ptr, align 8
  %16 = alloca ptr, align 8
  %17 = alloca i64, align 8
  %18 = alloca i64, align 8
  %19 = alloca ptr, align 8
  %20 = alloca ptr, align 8
  %21 = alloca i32, align 4
  store ptr %0, ptr %8, align 8, !tbaa !4
  store ptr %1, ptr %9, align 8, !tbaa !8
  store i64 %2, ptr %10, align 8, !tbaa !10
  store i32 %3, ptr %11, align 4, !tbaa !12
  store i32 %4, ptr %12, align 4, !tbaa !12
  store ptr %5, ptr %13, align 8, !tbaa !14
  call void @llvm.lifetime.start.p0(i64 8, ptr %14) #5
  call void @llvm.lifetime.start.p0(i64 8, ptr %15) #5
  store ptr null, ptr %15, align 8, !tbaa !16
  call void @llvm.lifetime.start.p0(i64 8, ptr %16) #5
  %22 = load ptr, ptr %8, align 8, !tbaa !4
  store ptr %22, ptr %16, align 8, !tbaa !18
  call void @llvm.lifetime.start.p0(i64 8, ptr %17) #5
  store i64 0, ptr %17, align 8, !tbaa !10
  call void @llvm.lifetime.start.p0(i64 8, ptr %18) #5
  store i64 0, ptr %18, align 8, !tbaa !10
  call void @llvm.lifetime.start.p0(i64 8, ptr %19) #5
  store ptr null, ptr %19, align 8, !tbaa !20
  call void @llvm.lifetime.start.p0(i64 8, ptr %20) #5
  store ptr null, ptr %20, align 8, !tbaa !20
  %23 = load ptr, ptr %9, align 8, !tbaa !8
  %24 = icmp ne ptr %23, null
  br i1 %24, label %25, label %40

25:                                               ; preds = %6
  %26 = load ptr, ptr %13, align 8, !tbaa !14
  %27 = icmp ne ptr %26, null
  br i1 %27, label %28, label %40

28:                                               ; preds = %25
  %29 = load ptr, ptr %16, align 8, !tbaa !18
  %30 = icmp ne ptr %29, null
  br i1 %30, label %31, label %40

31:                                               ; preds = %28
  %32 = load i32, ptr %11, align 4, !tbaa !12
  %33 = icmp ugt i32 %32, 31
  br i1 %33, label %40, label %34

34:                                               ; preds = %31
  %35 = load i32, ptr %11, align 4, !tbaa !12
  %36 = icmp ne i32 %35, 0
  br i1 %36, label %37, label %40

37:                                               ; preds = %34
  %38 = load i32, ptr %12, align 4, !tbaa !12
  %39 = icmp slt i32 %38, -1
  br i1 %39, label %40, label %41

40:                                               ; preds = %37, %34, %31, %28, %25, %6
  store i32 6, ptr %7, align 4
  store i32 1, ptr %21, align 4
  br label %182

41:                                               ; preds = %37
  %42 = load ptr, ptr %16, align 8, !tbaa !18
  %43 = getelementptr inbounds nuw %struct.Curl_easy, ptr %42, i32 0, i32 19
  %44 = getelementptr inbounds nuw %struct.UrlState, ptr %43, i32 0, i32 42
  %45 = call i64 @Curl_llist_count(ptr noundef %44)
  %46 = icmp ne i64 %45, 0
  br i1 %46, label %48, label %47

47:                                               ; preds = %41
  store i32 3, ptr %7, align 4
  store i32 1, ptr %21, align 4
  br label %182

48:                                               ; preds = %41
  %49 = load i32, ptr %12, align 4, !tbaa !12
  %50 = load ptr, ptr %16, align 8, !tbaa !18
  %51 = getelementptr inbounds nuw %struct.Curl_easy, ptr %50, i32 0, i32 19
  %52 = getelementptr inbounds nuw %struct.UrlState, ptr %51, i32 0, i32 14
  %53 = load i32, ptr %52, align 8, !tbaa !22
  %54 = icmp sgt i32 %49, %53
  br i1 %54, label %55, label %56

55:                                               ; preds = %48
  store i32 4, ptr %7, align 4
  store i32 1, ptr %21, align 4
  br label %182

56:                                               ; preds = %48
  %57 = load i32, ptr %12, align 4, !tbaa !12
  %58 = icmp eq i32 %57, -1
  br i1 %58, label %59, label %64

59:                                               ; preds = %56
  %60 = load ptr, ptr %16, align 8, !tbaa !18
  %61 = getelementptr inbounds nuw %struct.Curl_easy, ptr %60, i32 0, i32 19
  %62 = getelementptr inbounds nuw %struct.UrlState, ptr %61, i32 0, i32 14
  %63 = load i32, ptr %62, align 8, !tbaa !22
  store i32 %63, ptr %12, align 4, !tbaa !12
  br label %64

64:                                               ; preds = %59, %56
  %65 = load ptr, ptr %16, align 8, !tbaa !18
  %66 = getelementptr inbounds nuw %struct.Curl_easy, ptr %65, i32 0, i32 19
  %67 = getelementptr inbounds nuw %struct.UrlState, ptr %66, i32 0, i32 42
  %68 = call ptr @Curl_llist_head(ptr noundef %67)
  store ptr %68, ptr %14, align 8, !tbaa !16
  br label %69

69:                                               ; preds = %101, %64
  %70 = load ptr, ptr %14, align 8, !tbaa !16
  %71 = icmp ne ptr %70, null
  br i1 %71, label %72, label %104

72:                                               ; preds = %69
  %73 = load ptr, ptr %14, align 8, !tbaa !16
  %74 = call ptr @Curl_node_elem(ptr noundef %73)
  store ptr %74, ptr %19, align 8, !tbaa !20
  %75 = load ptr, ptr %19, align 8, !tbaa !20
  %76 = getelementptr inbounds nuw %struct.Curl_header_store, ptr %75, i32 0, i32 1
  %77 = load ptr, ptr %76, align 8, !tbaa !86
  %78 = load ptr, ptr %9, align 8, !tbaa !8
  %79 = call i32 @curl_strequal(ptr noundef %77, ptr noundef %78)
  %80 = icmp ne i32 %79, 0
  br i1 %80, label %81, label %100

81:                                               ; preds = %72
  %82 = load ptr, ptr %19, align 8, !tbaa !20
  %83 = getelementptr inbounds nuw %struct.Curl_header_store, ptr %82, i32 0, i32 4
  %84 = load i8, ptr %83, align 4, !tbaa !88
  %85 = zext i8 %84 to i32
  %86 = load i32, ptr %11, align 4, !tbaa !12
  %87 = and i32 %85, %86
  %88 = icmp ne i32 %87, 0
  br i1 %88, label %89, label %100

89:                                               ; preds = %81
  %90 = load ptr, ptr %19, align 8, !tbaa !20
  %91 = getelementptr inbounds nuw %struct.Curl_header_store, ptr %90, i32 0, i32 3
  %92 = load i32, ptr %91, align 8, !tbaa !89
  %93 = load i32, ptr %12, align 4, !tbaa !12
  %94 = icmp eq i32 %92, %93
  br i1 %94, label %95, label %100

95:                                               ; preds = %89
  %96 = load i64, ptr %18, align 8, !tbaa !10
  %97 = add i64 %96, 1
  store i64 %97, ptr %18, align 8, !tbaa !10
  %98 = load ptr, ptr %19, align 8, !tbaa !20
  store ptr %98, ptr %20, align 8, !tbaa !20
  %99 = load ptr, ptr %14, align 8, !tbaa !16
  store ptr %99, ptr %15, align 8, !tbaa !16
  br label %100

100:                                              ; preds = %95, %89, %81, %72
  br label %101

101:                                              ; preds = %100
  %102 = load ptr, ptr %14, align 8, !tbaa !16
  %103 = call ptr @Curl_node_next(ptr noundef %102)
  store ptr %103, ptr %14, align 8, !tbaa !16
  br label %69, !llvm.loop !90

104:                                              ; preds = %69
  %105 = load i64, ptr %18, align 8, !tbaa !10
  %106 = icmp ne i64 %105, 0
  br i1 %106, label %108, label %107

107:                                              ; preds = %104
  store i32 2, ptr %7, align 4
  store i32 1, ptr %21, align 4
  br label %182

108:                                              ; preds = %104
  %109 = load i64, ptr %10, align 8, !tbaa !10
  %110 = load i64, ptr %18, align 8, !tbaa !10
  %111 = icmp uge i64 %109, %110
  br i1 %111, label %112, label %113

112:                                              ; preds = %108
  store i32 1, ptr %7, align 4
  store i32 1, ptr %21, align 4
  br label %182

113:                                              ; preds = %108
  br label %114

114:                                              ; preds = %113
  %115 = load i64, ptr %10, align 8, !tbaa !10
  %116 = load i64, ptr %18, align 8, !tbaa !10
  %117 = sub i64 %116, 1
  %118 = icmp eq i64 %115, %117
  br i1 %118, label %119, label %121

119:                                              ; preds = %114
  %120 = load ptr, ptr %20, align 8, !tbaa !20
  store ptr %120, ptr %19, align 8, !tbaa !20
  br label %168

121:                                              ; preds = %114
  %122 = load ptr, ptr %16, align 8, !tbaa !18
  %123 = getelementptr inbounds nuw %struct.Curl_easy, ptr %122, i32 0, i32 19
  %124 = getelementptr inbounds nuw %struct.UrlState, ptr %123, i32 0, i32 42
  %125 = call ptr @Curl_llist_head(ptr noundef %124)
  store ptr %125, ptr %14, align 8, !tbaa !16
  br label %126

126:                                              ; preds = %160, %121
  %127 = load ptr, ptr %14, align 8, !tbaa !16
  %128 = icmp ne ptr %127, null
  br i1 %128, label %129, label %163

129:                                              ; preds = %126
  %130 = load ptr, ptr %14, align 8, !tbaa !16
  %131 = call ptr @Curl_node_elem(ptr noundef %130)
  store ptr %131, ptr %19, align 8, !tbaa !20
  %132 = load ptr, ptr %19, align 8, !tbaa !20
  %133 = getelementptr inbounds nuw %struct.Curl_header_store, ptr %132, i32 0, i32 1
  %134 = load ptr, ptr %133, align 8, !tbaa !86
  %135 = load ptr, ptr %9, align 8, !tbaa !8
  %136 = call i32 @curl_strequal(ptr noundef %134, ptr noundef %135)
  %137 = icmp ne i32 %136, 0
  br i1 %137, label %138, label %159

138:                                              ; preds = %129
  %139 = load ptr, ptr %19, align 8, !tbaa !20
  %140 = getelementptr inbounds nuw %struct.Curl_header_store, ptr %139, i32 0, i32 4
  %141 = load i8, ptr %140, align 4, !tbaa !88
  %142 = zext i8 %141 to i32
  %143 = load i32, ptr %11, align 4, !tbaa !12
  %144 = and i32 %142, %143
  %145 = icmp ne i32 %144, 0
  br i1 %145, label %146, label %159

146:                                              ; preds = %138
  %147 = load ptr, ptr %19, align 8, !tbaa !20
  %148 = getelementptr inbounds nuw %struct.Curl_header_store, ptr %147, i32 0, i32 3
  %149 = load i32, ptr %148, align 8, !tbaa !89
  %150 = load i32, ptr %12, align 4, !tbaa !12
  %151 = icmp eq i32 %149, %150
  br i1 %151, label %152, label %159

152:                                              ; preds = %146
  %153 = load i64, ptr %17, align 8, !tbaa !10
  %154 = add i64 %153, 1
  store i64 %154, ptr %17, align 8, !tbaa !10
  %155 = load i64, ptr %10, align 8, !tbaa !10
  %156 = icmp eq i64 %153, %155
  br i1 %156, label %157, label %159

157:                                              ; preds = %152
  %158 = load ptr, ptr %14, align 8, !tbaa !16
  store ptr %158, ptr %15, align 8, !tbaa !16
  br label %163

159:                                              ; preds = %152, %146, %138, %129
  br label %160

160:                                              ; preds = %159
  %161 = load ptr, ptr %14, align 8, !tbaa !16
  %162 = call ptr @Curl_node_next(ptr noundef %161)
  store ptr %162, ptr %14, align 8, !tbaa !16
  br label %126, !llvm.loop !92

163:                                              ; preds = %157, %126
  %164 = load ptr, ptr %14, align 8, !tbaa !16
  %165 = icmp ne ptr %164, null
  br i1 %165, label %167, label %166

166:                                              ; preds = %163
  store i32 2, ptr %7, align 4
  store i32 1, ptr %21, align 4
  br label %182

167:                                              ; preds = %163
  br label %168

168:                                              ; preds = %167, %119
  %169 = load ptr, ptr %19, align 8, !tbaa !20
  %170 = load i64, ptr %10, align 8, !tbaa !10
  %171 = load i64, ptr %18, align 8, !tbaa !10
  %172 = load ptr, ptr %15, align 8, !tbaa !16
  %173 = load ptr, ptr %16, align 8, !tbaa !18
  %174 = getelementptr inbounds nuw %struct.Curl_easy, ptr %173, i32 0, i32 19
  %175 = getelementptr inbounds nuw %struct.UrlState, ptr %174, i32 0, i32 43
  %176 = getelementptr inbounds [2 x %struct.curl_header], ptr %175, i64 0, i64 0
  call void @copy_header_external(ptr noundef %169, i64 noundef %170, i64 noundef %171, ptr noundef %172, ptr noundef %176)
  %177 = load ptr, ptr %16, align 8, !tbaa !18
  %178 = getelementptr inbounds nuw %struct.Curl_easy, ptr %177, i32 0, i32 19
  %179 = getelementptr inbounds nuw %struct.UrlState, ptr %178, i32 0, i32 43
  %180 = getelementptr inbounds [2 x %struct.curl_header], ptr %179, i64 0, i64 0
  %181 = load ptr, ptr %13, align 8, !tbaa !14
  store ptr %180, ptr %181, align 8, !tbaa !93
  store i32 0, ptr %7, align 4
  store i32 1, ptr %21, align 4
  br label %182

182:                                              ; preds = %168, %166, %112, %107, %55, %47, %40
  call void @llvm.lifetime.end.p0(i64 8, ptr %20) #5
  call void @llvm.lifetime.end.p0(i64 8, ptr %19) #5
  call void @llvm.lifetime.end.p0(i64 8, ptr %18) #5
  call void @llvm.lifetime.end.p0(i64 8, ptr %17) #5
  call void @llvm.lifetime.end.p0(i64 8, ptr %16) #5
  call void @llvm.lifetime.end.p0(i64 8, ptr %15) #5
  call void @llvm.lifetime.end.p0(i64 8, ptr %14) #5
  %183 = load i32, ptr %7, align 4
  ret i32 %183
}